target datalayout = "e-m:e-p270:32:32-p271:32:32-p272:64:64-i64:64-i128:128-f80:128-n8:16:32:64-S128"
target triple = "x86_64-pc-linux-gnu"

@.str.1 = private unnamed_addr constant [37 x i8] c"../openssl/test/helpers/ssltestlib.c\00", align 1
@meth_maybe_retry = internal global ptr null, align 8
@.str.23 = private unnamed_addr constant [69 x i8] c"meth_maybe_retry = BIO_meth_new(BIO_TYPE_MAYBE_RETRY, \22Maybe Retry\22)\00", align 1
@.str.24 = private unnamed_addr constant [12 x i8] c"Maybe Retry\00", align 1
@.str.25 = private unnamed_addr constant [56 x i8] c"BIO_meth_set_write(meth_maybe_retry, maybe_retry_write)\00", align 1
@.str.26 = private unnamed_addr constant [54 x i8] c"BIO_meth_set_ctrl(meth_maybe_retry, maybe_retry_ctrl)\00", align 1
@.str.27 = private unnamed_addr constant [55 x i8] c"BIO_meth_set_create(meth_maybe_retry, maybe_retry_new)\00", align 1
@.str.28 = private unnamed_addr constant [57 x i8] c"BIO_meth_set_destroy(meth_maybe_retry, maybe_retry_free)\00", align 1

; Function Attrs: nounwind uwtable
define dso_local ptr @bio_s_maybe_retry() #0 {
  %1 = alloca ptr, align 8
  %2 = load ptr, ptr @meth_maybe_retry, align 8, !tbaa !4
  %3 = icmp eq ptr %2, null
  br i1 %3, label %4, label %38

4:                                                ; preds = %0
  %5 = call ptr @BIO_meth_new(i32 noundef 643, ptr noundef @.str.24)
  store ptr %5, ptr @meth_maybe_retry, align 8, !tbaa !4
  %6 = call i32 @test_ptr(ptr noundef @.str.1, i32 noundef 832, ptr noundef @.str.23, ptr noundef %5)
  %7 = icmp ne i32 %6, 0
  br i1 %7, label %8, label %36

8:                                                ; preds = %4
  %9 = load ptr, ptr @meth_maybe_retry, align 8, !tbaa !4
  %10 = call i32 @BIO_meth_set_write(ptr noundef %9, ptr noundef @maybe_retry_write)
  %11 = icmp ne i32 %10, 0
  %12 = zext i1 %11 to i32
  %13 = call i32 @test_true(ptr noundef @.str.1, i32 noundef 834, ptr noundef @.str.25, i32 noundef %12)
  %14 = icmp ne i32 %13, 0
  br i1 %14, label %15, label %36

15:                                               ; preds = %8
  %16 = load ptr, ptr @meth_maybe_retry, align 8, !tbaa !4
  %17 = call i32 @BIO_meth_set_ctrl(ptr noundef %16, ptr noundef @maybe_retry_ctrl)
  %18 = icmp ne i32 %17, 0
  %19 = zext i1 %18 to i32
  %20 = call i32 @test_true(ptr noundef @.str.1, i32 noundef 836, ptr noundef @.str.26, i32 noundef %19)
  %21 = icmp ne i32 %20, 0
  br i1 %21, label %22, label %36

22:                                               ; preds = %15
  %23 = load ptr, ptr @meth_maybe_retry, align 8, !tbaa !4
  %24 = call i32 @BIO_meth_set_create(ptr noundef %23, ptr noundef @maybe_retry_new)
  %25 = icmp ne i32 %24, 0
  %26 = zext i1 %25 to i32
  %27 = call i32 @test_true(ptr noundef @.str.1, i32 noundef 838, ptr noundef @.str.27, i32 noundef %26)
  %28 = icmp ne i32 %27, 0
  br i1 %28, label %29, label %36

29:                                               ; preds = %22
  %30 = load ptr, ptr @meth_maybe_retry, align 8, !tbaa !4
  %31 = call i32 @BIO_meth_set_destroy(ptr noundef %30, ptr noundef @maybe_retry_free)
  %32 = icmp ne i32 %31, 0
  %33 = zext i1 %32 to i32
  %34 = call i32 @test_true(ptr noundef @.str.1, i32 noundef 840, ptr noundef @.str.28, i32 noundef %33)
  %35 = icmp ne i32 %34, 0
  br i1 %35, label %37, label %36

36:                                               ; preds = %29, %22, %15, %8, %4
  store ptr null, ptr %1, align 8
  br label %40

37:                                               ; preds = %29
  br label %38

38:                                               ; preds = %37, %0
  %39 = load ptr, ptr @meth_maybe_retry, align 8, !tbaa !4
  store ptr %39, ptr %1, align 8
  br label %40

40:                                               ; preds = %38, %36
  %41 = load ptr, ptr %1, align 8
  ret ptr %41
}