; Function Attrs: nounwind uwtable
define dso_local ptr @bio_s_maybe_retry() local_unnamed_addr #0 {
  %1 = load ptr, ptr @meth_maybe_retry, align 8, !tbaa !4
  %2 = icmp eq ptr %1, null
  br i1 %2, label %3, label %._crit_edge

3:                                                ; preds = %0
  %4 = tail call ptr @BIO_meth_new(i32 noundef 643, ptr noundef nonnull @.str.24) #14
  store ptr %4, ptr @meth_maybe_retry, align 8, !tbaa !4
  %5 = tail call i32 @test_ptr(ptr noundef nonnull @.str.1, i32 noundef 832, ptr noundef nonnull @.str.23, ptr noundef %4) #14
  %.not = icmp eq i32 %5, 0
  br i1 %.not, label %._crit_edge, label %6

6:                                                ; preds = %3
  %7 = load ptr, ptr @meth_maybe_retry, align 8, !tbaa !4
  %8 = tail call i32 @BIO_meth_set_write(ptr noundef %7, ptr noundef nonnull @maybe_retry_write) #14
  %9 = icmp ne i32 %8, 0
  %10 = zext i1 %9 to i32
  %11 = tail call i32 @test_true(ptr noundef nonnull @.str.1, i32 noundef 834, ptr noundef nonnull @.str.25, i32 noundef %10) #14
  %.not1 = icmp eq i32 %11, 0
  br i1 %.not1, label %._crit_edge, label %12

12:                                               ; preds = %6
  %13 = load ptr, ptr @meth_maybe_retry, align 8, !tbaa !4
  %14 = tail call i32 @BIO_meth_set_ctrl(ptr noundef %13, ptr noundef nonnull @maybe_retry_ctrl) #14
  %15 = icmp ne i32 %14, 0
  %16 = zext i1 %15 to i32
  %17 = tail call i32 @test_true(ptr noundef nonnull @.str.1, i32 noundef 836, ptr noundef nonnull @.str.26, i32 noundef %16) #14
  %.not2 = icmp eq i32 %17, 0
  br i1 %.not2, label %._crit_edge, label %18

18:                                               ; preds = %12
  %19 = load ptr, ptr @meth_maybe_retry, align 8, !tbaa !4
  %20 = tail call i32 @BIO_meth_set_create(ptr noundef %19, ptr noundef nonnull @maybe_retry_new) #14
  %21 = icmp ne i32 %20, 0
  %22 = zext i1 %21 to i32
  %23 = tail call i32 @test_true(ptr noundef nonnull @.str.1, i32 noundef 838, ptr noundef nonnull @.str.27, i32 noundef %22) #14
  %.not3 = icmp eq i32 %23, 0
  br i1 %.not3, label %._crit_edge, label %24

24:                                               ; preds = %18
  %25 = load ptr, ptr @meth_maybe_retry, align 8, !tbaa !4
  %26 = tail call i32 @BIO_meth_set_destroy(ptr noundef %25, ptr noundef nonnull @maybe_retry_free) #14
  %27 = icmp ne i32 %26, 0
  %28 = zext i1 %27 to i32
  %29 = tail call i32 @test_true(ptr noundef nonnull @.str.1, i32 noundef 840, ptr noundef nonnull @.str.28, i32 noundef %28) #14
  %.not4 = icmp eq i32 %29, 0
  %.pre = load ptr, ptr @meth_maybe_retry, align 8
  %spec.select = select i1 %.not4, ptr null, ptr %.pre
  br label %._crit_edge

._crit_edge:                                      ; preds = %24, %0, %3, %6, %12, %18
  %.0 = phi ptr [ null, %18 ], [ null, %12 ], [ null, %6 ], [ null, %3 ], [ %1, %0 ], [ %spec.select, %24 ]
  ret ptr %.0
}